target datalayout = "e-m:e-p270:32:32-p271:32:32-p272:64:64-i64:64-i128:128-f80:128-n8:16:32:64-S128"
target triple = "x86_64-pc-linux-gnu"

@tcg_ctx = external thread_local global ptr, align 8

; Function Attrs: inlinehint nounwind sspstrong uwtable
define internal i64 @temp_arg(ptr noundef %0) #4 {
  %2 = alloca ptr, align 8
  store ptr %0, ptr %2, align 8
  %3 = load ptr, ptr %2, align 8
  %4 = ptrtoint ptr %3 to i64
  ret i64 %4
}

; Function Attrs: inlinehint nounwind sspstrong uwtable
define internal ptr @tcgv_i32_temp(ptr noundef %0) #4 {
  %2 = alloca ptr, align 8
  store ptr %0, ptr %2, align 8
  %3 = call align 8 ptr @llvm.threadlocal.address.p0(ptr align 8 @tcg_ctx)
  %4 = load ptr, ptr %3, align 8
  %5 = load ptr, ptr %2, align 8
  %6 = ptrtoint ptr %5 to i64
  %7 = getelementptr inbounds nuw i8, ptr %4, i64 %6
  ret ptr %7
}

; Function Attrs: inlinehint nounwind sspstrong uwtable
define internal i64 @tcgv_i32_arg(ptr noundef %0) #4 {
  %2 = alloca ptr, align 8
  store ptr %0, ptr %2, align 8
  %3 = load ptr, ptr %2, align 8
  %4 = call ptr @tcgv_i32_temp(ptr noundef %3)
  %5 = call i64 @temp_arg(ptr noundef %4)
  ret i64 %5
}

; Function Attrs: nounwind sspstrong uwtable
define internal void @tcg_gen_op3_i32(i32 noundef %0, ptr noundef %1, ptr noundef %2, ptr noundef %3) #3 {
  %5 = alloca i32, align 4
  %6 = alloca ptr, align 8
  %7 = alloca ptr, align 8
  %8 = alloca ptr, align 8
  store i32 %0, ptr %5, align 4
  store ptr %1, ptr %6, align 8
  store ptr %2, ptr %7, align 8
  store ptr %3, ptr %8, align 8
  %9 = load i32, ptr %5, align 4
  %10 = load ptr, ptr %6, align 8
  %11 = call i64 @tcgv_i32_arg(ptr noundef %10)
  %12 = load ptr, ptr %7, align 8
  %13 = call i64 @tcgv_i32_arg(ptr noundef %12)
  %14 = load ptr, ptr %8, align 8
  %15 = call i64 @tcgv_i32_arg(ptr noundef %14)
  %16 = call ptr @tcg_gen_op3(i32 noundef %9, i32 noundef 0, i64 noundef %11, i64 noundef %13, i64 noundef %15)
  ret void
}

; Function Attrs: nounwind sspstrong uwtable
define dso_local void @tcg_gen_rotr_i32(ptr noundef %0, ptr noundef %1, ptr noundef %2) #3 {
  %4 = alloca ptr, align 8
  %5 = alloca ptr, align 8
  %6 = alloca ptr, align 8
  store ptr %0, ptr %4, align 8
  store ptr %1, ptr %5, align 8
  store ptr %2, ptr %6, align 8
  %7 = load ptr, ptr %4, align 8
  %8 = load ptr, ptr %5, align 8
  %9 = load ptr, ptr %6, align 8
  call void @tcg_gen_op3_i32(i32 noundef 33, ptr noundef %7, ptr noundef %8, ptr noundef %9)
  ret void
}